; Function Attrs: nounwind uwtable
define dso_local void @performDeletion(ptr noundef %0, i32 noundef %1, i32 noundef %2) local_unnamed_addr #0 {
  %4 = alloca ptr, align 8
  call void @llvm.lifetime.start.p0(i64 8, ptr nonnull %4) #9
  %5 = tail call ptr @table_open(i32 noundef 2608, i32 noundef 3) #9
  store ptr %5, ptr %4, align 8
  %6 = load i32, ptr %0, align 4
  %7 = getelementptr inbounds nuw i8, ptr %0, i64 4
  %8 = load i32, ptr %7, align 4
  switch i32 %6, label %11 [
    i32 1259, label %9
    i32 1261, label %10
  ]

9:                                                ; preds = %3
  tail call void @LockRelationOid(i32 noundef %8, i32 noundef 8) #9
  br label %AcquireDeletionLock.exit

10:                                               ; preds = %3
  tail call void @LockSharedObject(i32 noundef 1261, i32 noundef %8, i16 noundef zeroext 0, i32 noundef 8) #9
  br label %AcquireDeletionLock.exit

11:                                               ; preds = %3
  tail call void @LockDatabaseObject(i32 noundef %6, i32 noundef %8, i16 noundef zeroext 0, i32 noundef 8) #9
  br label %AcquireDeletionLock.exit

AcquireDeletionLock.exit:                         ; preds = %9, %10, %11
  %12 = tail call ptr @palloc(i64 noundef 24) #9
  %13 = getelementptr inbounds nuw i8, ptr %12, i64 16
  store i32 0, ptr %13, align 8
  %14 = getelementptr inbounds nuw i8, ptr %12, i64 20
  store i32 32, ptr %14, align 4
  %15 = tail call ptr @palloc(i64 noundef 384) #9
  store ptr %15, ptr %12, align 8
  %16 = getelementptr inbounds nuw i8, ptr %12, i64 8
  store ptr null, ptr %16, align 8
  call fastcc void @findDependentObjects(ptr noundef nonnull %0, i32 noundef 1, i32 noundef %2, ptr noundef null, ptr noundef nonnull %12, ptr noundef null, ptr noundef %4)
  call fastcc void @reportDependentObjects(ptr noundef nonnull %12, i32 noundef %1, i32 noundef %2, ptr noundef nonnull %0)
  call fastcc void @deleteObjectsInList(ptr noundef nonnull %12, ptr noundef %4, i32 noundef %2)
  %17 = load ptr, ptr %12, align 8
  call void @pfree(ptr noundef %17) #9
  %18 = load ptr, ptr %16, align 8
  %.not.i = icmp eq ptr %18, null
  br i1 %.not.i, label %free_object_addresses.exit, label %19

19:                                               ; preds = %AcquireDeletionLock.exit
  call void @pfree(ptr noundef nonnull %18) #9
  br label %free_object_addresses.exit

free_object_addresses.exit:                       ; preds = %AcquireDeletionLock.exit, %19
  call void @pfree(ptr noundef nonnull %12) #9
  %20 = load ptr, ptr %4, align 8
  call void @table_close(ptr noundef %20, i32 noundef 3) #9
  call void @llvm.lifetime.end.p0(i64 8, ptr nonnull %4) #9
  ret void
}